target datalayout = "e-m:e-p270:32:32-p271:32:32-p272:64:64-i64:64-i128:128-f80:128-n8:16:32:64-S128"
target triple = "x86_64-pc-linux-gnu"

%union.anon = type { i32 }
%struct.blockProperties_t = type { i32, i32 }
%struct.ZSTDv02_Dctx_s = type { [1025 x i32], [513 x i32], [1025 x i32], ptr, ptr, i64, i32, i32, ptr, i64, [131080 x i8] }

@__const.MEM_isLittleEndian.one = private unnamed_addr constant %union.anon { i32 1 }, align 4

; Function Attrs: nounwind uwtable
define internal i32 @ERR_isError(i64 noundef %0) #0 {
  %2 = alloca i64, align 8
  store i64 %0, ptr %2, align 8, !tbaa !7
  %3 = load i64, ptr %2, align 8, !tbaa !7
  %4 = icmp ugt i64 %3, -120
  %5 = zext i1 %4 to i32
  ret i32 %5
}

; Function Attrs: inlinehint nounwind uwtable
define internal i32 @MEM_read32(ptr noundef %0) #2 {
  %2 = alloca ptr, align 8
  %3 = alloca i32, align 4
  store ptr %0, ptr %2, align 8, !tbaa !3
  call void @llvm.lifetime.start.p0(i64 4, ptr %3) #9
  %4 = load ptr, ptr %2, align 8, !tbaa !3
  call void @llvm.memcpy.p0.p0.i64(ptr align 4 %3, ptr align 1 %4, i64 4, i1 false)
  %5 = load i32, ptr %3, align 4, !tbaa !15
  call void @llvm.lifetime.end.p0(i64 4, ptr %3) #9
  ret i32 %5
}

; Function Attrs: inlinehint nounwind uwtable
define internal i32 @MEM_isLittleEndian() #2 {
  %1 = alloca %union.anon, align 4
  call void @llvm.lifetime.start.p0(i64 4, ptr %1) #9
  call void @llvm.memcpy.p0.p0.i64(ptr align 4 %1, ptr align 4 @__const.MEM_isLittleEndian.one, i64 4, i1 false)
  %2 = getelementptr inbounds [4 x i8], ptr %1, i64 0, i64 0
  %3 = load i8, ptr %2, align 4, !tbaa !19
  %4 = zext i8 %3 to i32
  call void @llvm.lifetime.end.p0(i64 4, ptr %1) #9
  ret i32 %4
}

; Function Attrs: nounwind uwtable
define internal i64 @ZSTD_copyUncompressedBlock(ptr noundef %0, i64 noundef %1, ptr noundef %2, i64 noundef %3) #0 {
  %5 = alloca i64, align 8
  %6 = alloca ptr, align 8
  %7 = alloca i64, align 8
  %8 = alloca ptr, align 8
  %9 = alloca i64, align 8
  store ptr %0, ptr %6, align 8, !tbaa !3
  store i64 %1, ptr %7, align 8, !tbaa !7
  store ptr %2, ptr %8, align 8, !tbaa !3
  store i64 %3, ptr %9, align 8, !tbaa !7
  %10 = load i64, ptr %9, align 8, !tbaa !7
  %11 = load i64, ptr %7, align 8, !tbaa !7
  %12 = icmp ugt i64 %10, %11
  br i1 %12, label %13, label %14

13:                                               ; preds = %4
  store i64 -70, ptr %5, align 8
  br label %23

14:                                               ; preds = %4
  %15 = load i64, ptr %9, align 8, !tbaa !7
  %16 = icmp ugt i64 %15, 0
  br i1 %16, label %17, label %21

17:                                               ; preds = %14
  %18 = load ptr, ptr %6, align 8, !tbaa !3
  %19 = load ptr, ptr %8, align 8, !tbaa !3
  %20 = load i64, ptr %9, align 8, !tbaa !7
  call void @llvm.memcpy.p0.p0.i64(ptr align 1 %18, ptr align 1 %19, i64 %20, i1 false)
  br label %21

21:                                               ; preds = %17, %14
  %22 = load i64, ptr %9, align 8, !tbaa !7
  store i64 %22, ptr %5, align 8
  br label %23

23:                                               ; preds = %21, %13
  %24 = load i64, ptr %5, align 8
  ret i64 %24
}

; Function Attrs: nounwind uwtable
define internal i32 @ZSTD_isError(i64 noundef %0) #0 {
  %2 = alloca i64, align 8
  store i64 %0, ptr %2, align 8, !tbaa !7
  %3 = load i64, ptr %2, align 8, !tbaa !7
  %4 = call i32 @ERR_isError(i64 noundef %3)
  ret i32 %4
}

; Function Attrs: nounwind uwtable
define internal i64 @ZSTD_getcBlockSize(ptr noundef %0, i64 noundef %1, ptr noundef %2) #0 {
  %4 = alloca i64, align 8
  %5 = alloca ptr, align 8
  %6 = alloca i64, align 8
  %7 = alloca ptr, align 8
  %8 = alloca ptr, align 8
  %9 = alloca i8, align 1
  %10 = alloca i32, align 4
  %11 = alloca i32, align 4
  store ptr %0, ptr %5, align 8, !tbaa !3
  store i64 %1, ptr %6, align 8, !tbaa !7
  store ptr %2, ptr %7, align 8, !tbaa !3
  call void @llvm.lifetime.start.p0(i64 8, ptr %8) #9
  %12 = load ptr, ptr %5, align 8, !tbaa !3
  store ptr %12, ptr %8, align 8, !tbaa !13
  call void @llvm.lifetime.start.p0(i64 1, ptr %9) #9
  call void @llvm.lifetime.start.p0(i64 4, ptr %10) #9
  %13 = load i64, ptr %6, align 8, !tbaa !7
  %14 = icmp ult i64 %13, 3
  br i1 %14, label %15, label %16

15:                                               ; preds = %3
  store i64 -72, ptr %4, align 8
  store i32 1, ptr %11, align 4
  br label %66

16:                                               ; preds = %3
  %17 = load ptr, ptr %8, align 8, !tbaa !13
  %18 = load i8, ptr %17, align 1, !tbaa !19
  store i8 %18, ptr %9, align 1, !tbaa !19
  %19 = load ptr, ptr %8, align 8, !tbaa !13
  %20 = getelementptr inbounds i8, ptr %19, i64 2
  %21 = load i8, ptr %20, align 1, !tbaa !19
  %22 = zext i8 %21 to i32
  %23 = load ptr, ptr %8, align 8, !tbaa !13
  %24 = getelementptr inbounds i8, ptr %23, i64 1
  %25 = load i8, ptr %24, align 1, !tbaa !19
  %26 = zext i8 %25 to i32
  %27 = shl i32 %26, 8
  %28 = add nsw i32 %22, %27
  %29 = load ptr, ptr %8, align 8, !tbaa !13
  %30 = getelementptr inbounds i8, ptr %29, i64 0
  %31 = load i8, ptr %30, align 1, !tbaa !19
  %32 = zext i8 %31 to i32
  %33 = and i32 %32, 7
  %34 = shl i32 %33, 16
  %35 = add nsw i32 %28, %34
  store i32 %35, ptr %10, align 4, !tbaa !15
  %36 = load i8, ptr %9, align 1, !tbaa !19
  %37 = zext i8 %36 to i32
  %38 = ashr i32 %37, 6
  %39 = load ptr, ptr %7, align 8, !tbaa !3
  %40 = getelementptr inbounds nuw %struct.blockProperties_t, ptr %39, i32 0, i32 0
  store i32 %38, ptr %40, align 4, !tbaa !20
  %41 = load ptr, ptr %7, align 8, !tbaa !3
  %42 = getelementptr inbounds nuw %struct.blockProperties_t, ptr %41, i32 0, i32 0
  %43 = load i32, ptr %42, align 4, !tbaa !20
  %44 = icmp eq i32 %43, 2
  br i1 %44, label %45, label %47

45:                                               ; preds = %16
  %46 = load i32, ptr %10, align 4, !tbaa !15
  br label %48

47:                                               ; preds = %16
  br label %48

48:                                               ; preds = %47, %45
  %49 = phi i32 [ %46, %45 ], [ 0, %47 ]
  %50 = load ptr, ptr %7, align 8, !tbaa !3
  %51 = getelementptr inbounds nuw %struct.blockProperties_t, ptr %50, i32 0, i32 1
  store i32 %49, ptr %51, align 4, !tbaa !22
  %52 = load ptr, ptr %7, align 8, !tbaa !3
  %53 = getelementptr inbounds nuw %struct.blockProperties_t, ptr %52, i32 0, i32 0
  %54 = load i32, ptr %53, align 4, !tbaa !20
  %55 = icmp eq i32 %54, 3
  br i1 %55, label %56, label %57

56:                                               ; preds = %48
  store i64 0, ptr %4, align 8
  store i32 1, ptr %11, align 4
  br label %66

57:                                               ; preds = %48
  %58 = load ptr, ptr %7, align 8, !tbaa !3
  %59 = getelementptr inbounds nuw %struct.blockProperties_t, ptr %58, i32 0, i32 0
  %60 = load i32, ptr %59, align 4, !tbaa !20
  %61 = icmp eq i32 %60, 2
  br i1 %61, label %62, label %63

62:                                               ; preds = %57
  store i64 1, ptr %4, align 8
  store i32 1, ptr %11, align 4
  br label %66

63:                                               ; preds = %57
  %64 = load i32, ptr %10, align 4, !tbaa !15
  %65 = zext i32 %64 to i64
  store i64 %65, ptr %4, align 8
  store i32 1, ptr %11, align 4
  br label %66

66:                                               ; preds = %63, %62, %56, %15
  call void @llvm.lifetime.end.p0(i64 4, ptr %10) #9
  call void @llvm.lifetime.end.p0(i64 1, ptr %9) #9
  call void @llvm.lifetime.end.p0(i64 8, ptr %8) #9
  %67 = load i64, ptr %4, align 8
  ret i64 %67
}

; Function Attrs: inlinehint nounwind uwtable
define internal i32 @MEM_readLE32(ptr noundef %0) #2 {
  %2 = alloca i32, align 4
  %3 = alloca ptr, align 8
  %4 = alloca ptr, align 8
  store ptr %0, ptr %3, align 8, !tbaa !3
  %5 = call i32 @MEM_isLittleEndian()
  %6 = icmp ne i32 %5, 0
  br i1 %6, label %7, label %10

7:                                                ; preds = %1
  %8 = load ptr, ptr %3, align 8, !tbaa !3
  %9 = call i32 @MEM_read32(ptr noundef %8)
  store i32 %9, ptr %2, align 4
  br label %34

10:                                               ; preds = %1
  call void @llvm.lifetime.start.p0(i64 8, ptr %4) #9
  %11 = load ptr, ptr %3, align 8, !tbaa !3
  store ptr %11, ptr %4, align 8, !tbaa !13
  %12 = load ptr, ptr %4, align 8, !tbaa !13
  %13 = getelementptr inbounds i8, ptr %12, i64 0
  %14 = load i8, ptr %13, align 1, !tbaa !19
  %15 = zext i8 %14 to i32
  %16 = load ptr, ptr %4, align 8, !tbaa !13
  %17 = getelementptr inbounds i8, ptr %16, i64 1
  %18 = load i8, ptr %17, align 1, !tbaa !19
  %19 = zext i8 %18 to i32
  %20 = shl i32 %19, 8
  %21 = add i32 %15, %20
  %22 = load ptr, ptr %4, align 8, !tbaa !13
  %23 = getelementptr inbounds i8, ptr %22, i64 2
  %24 = load i8, ptr %23, align 1, !tbaa !19
  %25 = zext i8 %24 to i32
  %26 = shl i32 %25, 16
  %27 = add i32 %21, %26
  %28 = load ptr, ptr %4, align 8, !tbaa !13
  %29 = getelementptr inbounds i8, ptr %28, i64 3
  %30 = load i8, ptr %29, align 1, !tbaa !19
  %31 = zext i8 %30 to i32
  %32 = shl i32 %31, 24
  %33 = add i32 %27, %32
  store i32 %33, ptr %2, align 4
  call void @llvm.lifetime.end.p0(i64 8, ptr %4) #9
  br label %34

34:                                               ; preds = %10, %7
  %35 = load i32, ptr %2, align 4
  ret i32 %35
}

; Function Attrs: nounwind uwtable
define internal i64 @ZSTD_decompressDCtx(ptr noundef %0, ptr noundef %1, i64 noundef %2, ptr noundef %3, i64 noundef %4) #0 {
  %6 = alloca i64, align 8
  %7 = alloca ptr, align 8
  %8 = alloca ptr, align 8
  %9 = alloca i64, align 8
  %10 = alloca ptr, align 8
  %11 = alloca i64, align 8
  %12 = alloca ptr, align 8
  %13 = alloca ptr, align 8
  %14 = alloca ptr, align 8
  %15 = alloca ptr, align 8
  %16 = alloca ptr, align 8
  %17 = alloca i64, align 8
  %18 = alloca i32, align 4
  %19 = alloca %struct.blockProperties_t, align 4
  %20 = alloca i32, align 4
  %21 = alloca i64, align 8
  %22 = alloca i64, align 8
  store ptr %0, ptr %7, align 8, !tbaa !3
  store ptr %1, ptr %8, align 8, !tbaa !3
  store i64 %2, ptr %9, align 8, !tbaa !7
  store ptr %3, ptr %10, align 8, !tbaa !3
  store i64 %4, ptr %11, align 8, !tbaa !7
  call void @llvm.lifetime.start.p0(i64 8, ptr %12) #9
  %23 = load ptr, ptr %10, align 8, !tbaa !3
  store ptr %23, ptr %12, align 8, !tbaa !13
  call void @llvm.lifetime.start.p0(i64 8, ptr %13) #9
  %24 = load ptr, ptr %12, align 8, !tbaa !13
  %25 = load i64, ptr %11, align 8, !tbaa !7
  %26 = getelementptr inbounds nuw i8, ptr %24, i64 %25
  store ptr %26, ptr %13, align 8, !tbaa !13
  call void @llvm.lifetime.start.p0(i64 8, ptr %14) #9
  %27 = load ptr, ptr %8, align 8, !tbaa !3
  store ptr %27, ptr %14, align 8, !tbaa !13
  call void @llvm.lifetime.start.p0(i64 8, ptr %15) #9
  %28 = load ptr, ptr %14, align 8, !tbaa !13
  store ptr %28, ptr %15, align 8, !tbaa !13
  call void @llvm.lifetime.start.p0(i64 8, ptr %16) #9
  %29 = load ptr, ptr %14, align 8, !tbaa !13
  %30 = load i64, ptr %9, align 8, !tbaa !7
  %31 = getelementptr inbounds nuw i8, ptr %29, i64 %30
  store ptr %31, ptr %16, align 8, !tbaa !13
  call void @llvm.lifetime.start.p0(i64 8, ptr %17) #9
  %32 = load i64, ptr %11, align 8, !tbaa !7
  store i64 %32, ptr %17, align 8, !tbaa !7
  call void @llvm.lifetime.start.p0(i64 4, ptr %18) #9
  call void @llvm.lifetime.start.p0(i64 8, ptr %19) #9
  %33 = load i64, ptr %11, align 8, !tbaa !7
  %34 = icmp ult i64 %33, 7
  br i1 %34, label %35, label %36

35:                                               ; preds = %5
  store i64 -72, ptr %6, align 8
  store i32 1, ptr %20, align 4
  br label %130

36:                                               ; preds = %5
  %37 = load ptr, ptr %10, align 8, !tbaa !3
  %38 = call i32 @MEM_readLE32(ptr noundef %37)
  store i32 %38, ptr %18, align 4, !tbaa !15
  %39 = load i32, ptr %18, align 4, !tbaa !15
  %40 = icmp ne i32 %39, -47205086
  br i1 %40, label %41, label %42

41:                                               ; preds = %36
  store i64 -10, ptr %6, align 8
  store i32 1, ptr %20, align 4
  br label %130

42:                                               ; preds = %36
  %43 = load ptr, ptr %12, align 8, !tbaa !13
  %44 = getelementptr inbounds nuw i8, ptr %43, i64 4
  store ptr %44, ptr %12, align 8, !tbaa !13
  %45 = load i64, ptr %17, align 8, !tbaa !7
  %46 = sub i64 %45, 4
  store i64 %46, ptr %17, align 8, !tbaa !7
  br label %47

47:                                               ; preds = %123, %42
  br label %48

48:                                               ; preds = %47
  call void @llvm.lifetime.start.p0(i64 8, ptr %21) #9
  store i64 0, ptr %21, align 8, !tbaa !7
  call void @llvm.lifetime.start.p0(i64 8, ptr %22) #9
  %49 = load ptr, ptr %12, align 8, !tbaa !13
  %50 = load ptr, ptr %13, align 8, !tbaa !13
  %51 = load ptr, ptr %12, align 8, !tbaa !13
  %52 = ptrtoint ptr %50 to i64
  %53 = ptrtoint ptr %51 to i64
  %54 = sub i64 %52, %53
  %55 = call i64 @ZSTD_getcBlockSize(ptr noundef %49, i64 noundef %54, ptr noundef %19)
  store i64 %55, ptr %22, align 8, !tbaa !7
  %56 = load i64, ptr %22, align 8, !tbaa !7
  %57 = call i32 @ZSTD_isError(i64 noundef %56)
  %58 = icmp ne i32 %57, 0
  br i1 %58, label %59, label %61

59:                                               ; preds = %48
  %60 = load i64, ptr %22, align 8, !tbaa !7
  store i64 %60, ptr %6, align 8
  store i32 1, ptr %20, align 4
  br label %121

61:                                               ; preds = %48
  %62 = load ptr, ptr %12, align 8, !tbaa !13
  %63 = getelementptr inbounds nuw i8, ptr %62, i64 3
  store ptr %63, ptr %12, align 8, !tbaa !13
  %64 = load i64, ptr %17, align 8, !tbaa !7
  %65 = sub i64 %64, 3
  store i64 %65, ptr %17, align 8, !tbaa !7
  %66 = load i64, ptr %22, align 8, !tbaa !7
  %67 = load i64, ptr %17, align 8, !tbaa !7
  %68 = icmp ugt i64 %66, %67
  br i1 %68, label %69, label %70

69:                                               ; preds = %61
  store i64 -72, ptr %6, align 8
  store i32 1, ptr %20, align 4
  br label %121

70:                                               ; preds = %61
  %71 = getelementptr inbounds nuw %struct.blockProperties_t, ptr %19, i32 0, i32 0
  %72 = load i32, ptr %71, align 4, !tbaa !20
  switch i32 %72, label %100 [
    i32 0, label %73
    i32 1, label %84
    i32 2, label %94
    i32 3, label %95
  ]

73:                                               ; preds = %70
  %74 = load ptr, ptr %7, align 8, !tbaa !3
  %75 = load ptr, ptr %15, align 8, !tbaa !13
  %76 = load ptr, ptr %16, align 8, !tbaa !13
  %77 = load ptr, ptr %15, align 8, !tbaa !13
  %78 = ptrtoint ptr %76 to i64
  %79 = ptrtoint ptr %77 to i64
  %80 = sub i64 %78, %79
  %81 = load ptr, ptr %12, align 8, !tbaa !13
  %82 = load i64, ptr %22, align 8, !tbaa !7
  %83 = call i64 @ZSTD_decompressBlock(ptr noundef %74, ptr noundef %75, i64 noundef %80, ptr noundef %81, i64 noundef %82)
  store i64 %83, ptr %21, align 8, !tbaa !7
  br label %101

84:                                               ; preds = %70
  %85 = load ptr, ptr %15, align 8, !tbaa !13
  %86 = load ptr, ptr %16, align 8, !tbaa !13
  %87 = load ptr, ptr %15, align 8, !tbaa !13
  %88 = ptrtoint ptr %86 to i64
  %89 = ptrtoint ptr %87 to i64
  %90 = sub i64 %88, %89
  %91 = load ptr, ptr %12, align 8, !tbaa !13
  %92 = load i64, ptr %22, align 8, !tbaa !7
  %93 = call i64 @ZSTD_copyUncompressedBlock(ptr noundef %85, i64 noundef %90, ptr noundef %91, i64 noundef %92)
  store i64 %93, ptr %21, align 8, !tbaa !7
  br label %101

94:                                               ; preds = %70
  store i64 -1, ptr %6, align 8
  store i32 1, ptr %20, align 4
  br label %121

95:                                               ; preds = %70
  %96 = load i64, ptr %17, align 8, !tbaa !7
  %97 = icmp ne i64 %96, 0
  br i1 %97, label %98, label %99

98:                                               ; preds = %95
  store i64 -72, ptr %6, align 8
  store i32 1, ptr %20, align 4
  br label %121

99:                                               ; preds = %95
  br label %101

100:                                              ; preds = %70
  store i64 -1, ptr %6, align 8
  store i32 1, ptr %20, align 4
  br label %121

101:                                              ; preds = %99, %84, %73
  %102 = load i64, ptr %22, align 8, !tbaa !7
  %103 = icmp eq i64 %102, 0
  br i1 %103, label %104, label %105

104:                                              ; preds = %101
  store i32 3, ptr %20, align 4
  br label %121

105:                                              ; preds = %101
  %106 = load i64, ptr %21, align 8, !tbaa !7
  %107 = call i32 @ZSTD_isError(i64 noundef %106)
  %108 = icmp ne i32 %107, 0
  br i1 %108, label %109, label %111

109:                                              ; preds = %105
  %110 = load i64, ptr %21, align 8, !tbaa !7
  store i64 %110, ptr %6, align 8
  store i32 1, ptr %20, align 4
  br label %121

111:                                              ; preds = %105
  %112 = load i64, ptr %21, align 8, !tbaa !7
  %113 = load ptr, ptr %15, align 8, !tbaa !13
  %114 = getelementptr inbounds nuw i8, ptr %113, i64 %112
  store ptr %114, ptr %15, align 8, !tbaa !13
  %115 = load i64, ptr %22, align 8, !tbaa !7
  %116 = load ptr, ptr %12, align 8, !tbaa !13
  %117 = getelementptr inbounds nuw i8, ptr %116, i64 %115
  store ptr %117, ptr %12, align 8, !tbaa !13
  %118 = load i64, ptr %22, align 8, !tbaa !7
  %119 = load i64, ptr %17, align 8, !tbaa !7
  %120 = sub i64 %119, %118
  store i64 %120, ptr %17, align 8, !tbaa !7
  store i32 0, ptr %20, align 4
  br label %121

121:                                              ; preds = %111, %109, %104, %100, %98, %94, %69, %59
  call void @llvm.lifetime.end.p0(i64 8, ptr %22) #9
  call void @llvm.lifetime.end.p0(i64 8, ptr %21) #9
  %122 = load i32, ptr %20, align 4
  switch i32 %122, label %130 [
    i32 0, label %123
    i32 3, label %124
  ]

123:                                              ; preds = %121
  br label %47

124:                                              ; preds = %121
  %125 = load ptr, ptr %15, align 8, !tbaa !13
  %126 = load ptr, ptr %14, align 8, !tbaa !13
  %127 = ptrtoint ptr %125 to i64
  %128 = ptrtoint ptr %126 to i64
  %129 = sub i64 %127, %128
  store i64 %129, ptr %6, align 8
  store i32 1, ptr %20, align 4
  br label %130

130:                                              ; preds = %124, %121, %41, %35
  call void @llvm.lifetime.end.p0(i64 8, ptr %19) #9
  call void @llvm.lifetime.end.p0(i64 4, ptr %18) #9
  call void @llvm.lifetime.end.p0(i64 8, ptr %17) #9
  call void @llvm.lifetime.end.p0(i64 8, ptr %16) #9
  call void @llvm.lifetime.end.p0(i64 8, ptr %15) #9
  call void @llvm.lifetime.end.p0(i64 8, ptr %14) #9
  call void @llvm.lifetime.end.p0(i64 8, ptr %13) #9
  call void @llvm.lifetime.end.p0(i64 8, ptr %12) #9
  %131 = load i64, ptr %6, align 8
  ret i64 %131
}

; Function Attrs: nounwind uwtable
define internal i64 @ZSTD_decompress(ptr noundef %0, i64 noundef %1, ptr noundef %2, i64 noundef %3) #0 {
  %5 = alloca ptr, align 8
  %6 = alloca i64, align 8
  %7 = alloca ptr, align 8
  %8 = alloca i64, align 8
  %9 = alloca %struct.ZSTDv02_Dctx_s, align 8
  store ptr %0, ptr %5, align 8, !tbaa !3
  store i64 %1, ptr %6, align 8, !tbaa !7
  store ptr %2, ptr %7, align 8, !tbaa !3
  store i64 %3, ptr %8, align 8, !tbaa !7
  call void @llvm.lifetime.start.p0(i64 141384, ptr %9) #9
  %10 = load ptr, ptr %5, align 8, !tbaa !3
  %11 = getelementptr inbounds nuw %struct.ZSTDv02_Dctx_s, ptr %9, i32 0, i32 4
  store ptr %10, ptr %11, align 8, !tbaa !23
  %12 = load ptr, ptr %5, align 8, !tbaa !3
  %13 = load i64, ptr %6, align 8, !tbaa !7
  %14 = load ptr, ptr %7, align 8, !tbaa !3
  %15 = load i64, ptr %8, align 8, !tbaa !7
  %16 = call i64 @ZSTD_decompressDCtx(ptr noundef %9, ptr noundef %12, i64 noundef %13, ptr noundef %14, i64 noundef %15)
  call void @llvm.lifetime.end.p0(i64 141384, ptr %9) #9
  ret i64 %16
}

; Function Attrs: nounwind uwtable
define i64 @ZSTDv02_decompress(ptr noundef %0, i64 noundef %1, ptr noundef %2, i64 noundef %3) #0 {
  %5 = alloca ptr, align 8
  %6 = alloca i64, align 8
  %7 = alloca ptr, align 8
  %8 = alloca i64, align 8
  store ptr %0, ptr %5, align 8, !tbaa !3
  store i64 %1, ptr %6, align 8, !tbaa !7
  store ptr %2, ptr %7, align 8, !tbaa !3
  store i64 %3, ptr %8, align 8, !tbaa !7
  %9 = load ptr, ptr %5, align 8, !tbaa !3
  %10 = load i64, ptr %6, align 8, !tbaa !7
  %11 = load ptr, ptr %7, align 8, !tbaa !3
  %12 = load i64, ptr %8, align 8, !tbaa !7
  %13 = call i64 @ZSTD_decompress(ptr noundef %9, i64 noundef %10, ptr noundef %11, i64 noundef %12)
  ret i64 %13
}