; Function Attrs: nounwind uwtable
define i64 @ZSTDv02_decompress(ptr noundef %0, i64 noundef %1, ptr noundef %2, i64 noundef %3) local_unnamed_addr #3 {
  %5 = alloca %struct.ZSTDv02_Dctx_s, align 8
  call void @llvm.lifetime.start.p0(i64 141384, ptr nonnull %5) #20
  %6 = getelementptr inbounds nuw i8, ptr %5, i64 10264
  store ptr %0, ptr %6, align 8, !tbaa !10
  %7 = getelementptr inbounds nuw i8, ptr %2, i64 %3
  %8 = getelementptr inbounds nuw i8, ptr %0, i64 %1
  %9 = icmp ult i64 %3, 7
  br i1 %9, label %ZSTD_decompress.exit, label %10

10:                                               ; preds = %4
  %.val.i.i = load i32, ptr %2, align 1
  %.not.i.i = icmp eq i32 %.val.i.i, -47205086
  br i1 %.not.i.i, label %.lr.ph.i.i, label %ZSTD_decompress.exit

.lr.ph.i.i:                                       ; preds = %10
  %11 = ptrtoint ptr %7 to i64
  %gepdiff.i.i = add i64 %3, -4
  %12 = getelementptr inbounds nuw i8, ptr %2, i64 4
  %13 = ptrtoint ptr %8 to i64
  br label %14

14:                                               ; preds = %46, %.lr.ph.i.i
  %.048108.i.i = phi ptr [ %12, %.lr.ph.i.i ], [ %48, %46 ]
  %.050107.i.i = phi i64 [ %gepdiff.i.i, %.lr.ph.i.i ], [ %49, %46 ]
  %.052106.i.i = phi ptr [ %0, %.lr.ph.i.i ], [ %47, %46 ]
  %15 = load i8, ptr %.048108.i.i, align 1, !tbaa !7
  %16 = zext i8 %15 to i32
  %17 = lshr i32 %16, 6
  switch i32 %17, label %18 [
    i32 3, label %.thread71.i.i
    i32 2, label %31
  ]

.thread71.i.i:                                    ; preds = %14
  %.not59.i.i = icmp eq i64 %.050107.i.i, 3
  br i1 %.not59.i.i, label %.thread71.i.ZSTD_copyUncompressedBlock.exit.ZSTD_copyUncompressedBlock.exit.thread78_crit_edge.i_crit_edge.i, label %ZSTD_decompress.exit

.thread71.i.ZSTD_copyUncompressedBlock.exit.ZSTD_copyUncompressedBlock.exit.thread78_crit_edge.i_crit_edge.i: ; preds = %.thread71.i.i
  %.pre.i = ptrtoint ptr %.052106.i.i to i64
  br label %ZSTD_copyUncompressedBlock.exit.thread78.i.i

18:                                               ; preds = %14
  %19 = shl nuw nsw i32 %16, 16
  %20 = and i32 %19, 458752
  %21 = getelementptr inbounds nuw i8, ptr %.048108.i.i, i64 2
  %22 = load i8, ptr %21, align 1, !tbaa !7
  %23 = zext i8 %22 to i32
  %24 = or disjoint i32 %20, %23
  %25 = getelementptr inbounds nuw i8, ptr %.048108.i.i, i64 1
  %26 = load i8, ptr %25, align 1, !tbaa !7
  %27 = zext i8 %26 to i32
  %28 = shl nuw nsw i32 %27, 8
  %29 = or disjoint i32 %28, %24
  %30 = zext nneg i32 %29 to i64
  br label %31

31:                                               ; preds = %18, %14
  %.0.i.ph.i.i = phi i64 [ %30, %18 ], [ 1, %14 ]
  %32 = getelementptr inbounds nuw i8, ptr %.048108.i.i, i64 3
  %33 = add i64 %.050107.i.i, -3
  %34 = icmp ugt i64 %.0.i.ph.i.i, %33
  br i1 %34, label %ZSTD_decompress.exit, label %35

35:                                               ; preds = %31
  switch i32 %17, label %ZSTD_decompress.exit [
    i32 0, label %ZSTD_copyUncompressedBlock.exit.i.i
    i32 1, label %36
  ]

36:                                               ; preds = %35
  %37 = ptrtoint ptr %.052106.i.i to i64
  %38 = sub i64 %13, %37
  %39 = icmp ugt i64 %.0.i.ph.i.i, %38
  br i1 %39, label %ZSTD_decompress.exit, label %40

40:                                               ; preds = %36
  %.not.i.i.i = icmp eq i64 %.0.i.ph.i.i, 0
  br i1 %.not.i.i.i, label %ZSTD_copyUncompressedBlock.exit.thread78.i.i, label %ZSTD_copyUncompressedBlock.exit.thread.thread.i.i

ZSTD_copyUncompressedBlock.exit.thread.thread.i.i: ; preds = %40
  call void @llvm.memcpy.p0.p0.i64(ptr align 1 %.052106.i.i, ptr nonnull readonly align 1 %32, i64 %.0.i.ph.i.i, i1 false)
  br label %46

ZSTD_copyUncompressedBlock.exit.i.i:              ; preds = %35
  %41 = ptrtoint ptr %.052106.i.i to i64
  %42 = sub i64 %13, %41
  %43 = call fastcc i64 @ZSTD_decompressBlock(ptr noundef nonnull %5, ptr noundef %.052106.i.i, i64 noundef %42, ptr noundef nonnull %32, i64 noundef %.0.i.ph.i.i)
  %44 = icmp eq i64 %.0.i.ph.i.i, 0
  br i1 %44, label %ZSTD_copyUncompressedBlock.exit.thread78.i.i, label %ZSTD_copyUncompressedBlock.exit.thread.i.i

ZSTD_copyUncompressedBlock.exit.thread.i.i:       ; preds = %ZSTD_copyUncompressedBlock.exit.i.i
  %45 = icmp ult i64 %43, -119
  br i1 %45, label %46, label %ZSTD_decompress.exit

46:                                               ; preds = %ZSTD_copyUncompressedBlock.exit.thread.i.i, %ZSTD_copyUncompressedBlock.exit.thread.thread.i.i
  %.0467799.i.i = phi i64 [ %.0.i.ph.i.i, %ZSTD_copyUncompressedBlock.exit.thread.thread.i.i ], [ %43, %ZSTD_copyUncompressedBlock.exit.thread.i.i ]
  %47 = getelementptr inbounds nuw i8, ptr %.052106.i.i, i64 %.0467799.i.i
  %48 = getelementptr inbounds nuw i8, ptr %32, i64 %.0.i.ph.i.i
  %49 = sub i64 %33, %.0.i.ph.i.i
  %50 = ptrtoint ptr %48 to i64
  %51 = sub i64 %11, %50
  %52 = icmp ult i64 %51, 3
  br i1 %52, label %ZSTD_decompress.exit, label %14

ZSTD_copyUncompressedBlock.exit.thread78.i.i:     ; preds = %ZSTD_copyUncompressedBlock.exit.i.i, %40, %.thread71.i.ZSTD_copyUncompressedBlock.exit.ZSTD_copyUncompressedBlock.exit.thread78_crit_edge.i_crit_edge.i
  %.pre-phi.i.i = phi i64 [ %.pre.i, %.thread71.i.ZSTD_copyUncompressedBlock.exit.ZSTD_copyUncompressedBlock.exit.thread78_crit_edge.i_crit_edge.i ], [ %41, %ZSTD_copyUncompressedBlock.exit.i.i ], [ %37, %40 ]
  %53 = ptrtoint ptr %0 to i64
  %54 = sub i64 %.pre-phi.i.i, %53
  br label %ZSTD_decompress.exit

ZSTD_decompress.exit:                             ; preds = %31, %35, %36, %ZSTD_copyUncompressedBlock.exit.thread.i.i, %46, %4, %10, %.thread71.i.i, %ZSTD_copyUncompressedBlock.exit.thread78.i.i
  %.0.i.i = phi i64 [ %54, %ZSTD_copyUncompressedBlock.exit.thread78.i.i ], [ -72, %4 ], [ -10, %10 ], [ -72, %.thread71.i.i ], [ -72, %31 ], [ -1, %35 ], [ %43, %ZSTD_copyUncompressedBlock.exit.thread.i.i ], [ -70, %36 ], [ -72, %46 ]
  call void @llvm.lifetime.end.p0(i64 141384, ptr nonnull %5) #20
  ret i64 %.0.i.i
}